target datalayout = "e-m:e-p270:32:32-p271:32:32-p272:64:64-i64:64-i128:128-f80:128-n8:16:32:64-S128"
target triple = "x86_64-pc-linux-gnu"

%struct.aclSelector = type { i32, [16 x i64], ptr, ptr, ptr, ptr }
%struct.list = type { ptr, ptr, ptr, ptr, ptr, i64 }
%struct.user = type { ptr, i32, ptr, ptr, ptr }
%struct.listNode = type { ptr, ptr, ptr }

@.str.22 = private unnamed_addr constant [6 x i8] c"acl.c\00", align 1
@.str.36 = private unnamed_addr constant [25 x i8] c"listLength(u->selectors)\00", align 1
@.str.37 = private unnamed_addr constant [30 x i8] c"s->flags & SELECTOR_FLAG_ROOT\00", align 1

; Function Attrs: nounwind uwtable
define dso_local ptr @ACLUserGetRootSelector(ptr noundef %0) #0 {
  %2 = alloca ptr, align 8
  %3 = alloca ptr, align 8
  store ptr %0, ptr %2, align 8, !tbaa !32
  %4 = load ptr, ptr %2, align 8, !tbaa !32
  %5 = getelementptr inbounds nuw %struct.user, ptr %4, i32 0, i32 3
  %6 = load ptr, ptr %5, align 8, !tbaa !81
  %7 = getelementptr inbounds nuw %struct.list, ptr %6, i32 0, i32 5
  %8 = load i64, ptr %7, align 8, !tbaa !84
  %9 = icmp ne i64 %8, 0
  %10 = xor i1 %9, true
  %11 = xor i1 %10, true
  %12 = zext i1 %11 to i32
  %13 = sext i32 %12 to i64
  %14 = call i64 @llvm.expect.i64(i64 %13, i64 1)
  %15 = icmp ne i64 %14, 0
  br i1 %15, label %16, label %17

16:                                               ; preds = %1
  br label %19

17:                                               ; preds = %1
  call void @_serverAssert(ptr noundef @.str.36, ptr noundef @.str.22, i32 noundef 408)
  call void @abort() #15
  unreachable

18:                                               ; No predecessors!
  br label %19

19:                                               ; preds = %18, %16
  call void @llvm.lifetime.start.p0(i64 8, ptr %3) #14
  %20 = load ptr, ptr %2, align 8, !tbaa !32
  %21 = getelementptr inbounds nuw %struct.user, ptr %20, i32 0, i32 3
  %22 = load ptr, ptr %21, align 8, !tbaa !81
  %23 = getelementptr inbounds nuw %struct.list, ptr %22, i32 0, i32 0
  %24 = load ptr, ptr %23, align 8, !tbaa !85
  %25 = getelementptr inbounds nuw %struct.listNode, ptr %24, i32 0, i32 2
  %26 = load ptr, ptr %25, align 8, !tbaa !86
  store ptr %26, ptr %3, align 8, !tbaa !32
  %27 = load ptr, ptr %3, align 8, !tbaa !32
  %28 = getelementptr inbounds nuw %struct.aclSelector, ptr %27, i32 0, i32 0
  %29 = load i32, ptr %28, align 8, !tbaa !64
  %30 = and i32 %29, 1
  %31 = icmp ne i32 %30, 0
  %32 = xor i1 %31, true
  %33 = xor i1 %32, true
  %34 = zext i1 %33 to i32
  %35 = sext i32 %34 to i64
  %36 = call i64 @llvm.expect.i64(i64 %35, i64 1)
  %37 = icmp ne i64 %36, 0
  br i1 %37, label %38, label %39

38:                                               ; preds = %19
  br label %41

39:                                               ; preds = %19
  call void @_serverAssert(ptr noundef @.str.37, ptr noundef @.str.22, i32 noundef 410)
  call void @abort() #15
  unreachable

40:                                               ; No predecessors!
  br label %41

41:                                               ; preds = %40, %38
  %42 = load ptr, ptr %3, align 8, !tbaa !32
  call void @llvm.lifetime.end.p0(i64 8, ptr %3) #14
  ret ptr %42
}