; Function Attrs: nounwind uwtable
define dso_local noundef ptr @ACLUserGetRootSelector(ptr noundef readonly captures(none) %0) local_unnamed_addr #0 {
  %2 = getelementptr inbounds nuw i8, ptr %0, i64 24
  %3 = load ptr, ptr %2, align 8, !tbaa !79
  %4 = getelementptr inbounds nuw i8, ptr %3, i64 40
  %5 = load i64, ptr %4, align 8, !tbaa !82
  %.not = icmp eq i64 %5, 0
  br i1 %.not, label %6, label %7, !prof !83

6:                                                ; preds = %1
  tail call void @_serverAssert(ptr noundef nonnull @.str.36, ptr noundef nonnull @.str.22, i32 noundef 408) #25
  tail call void @abort() #27
  unreachable

7:                                                ; preds = %1
  %8 = load ptr, ptr %3, align 8, !tbaa !84
  %9 = getelementptr inbounds nuw i8, ptr %8, i64 16
  %10 = load ptr, ptr %9, align 8, !tbaa !85
  %11 = load i32, ptr %10, align 8, !tbaa !61
  %12 = and i32 %11, 1
  %.not4 = icmp eq i32 %12, 0
  br i1 %.not4, label %13, label %14, !prof !83

13:                                               ; preds = %7
  tail call void @_serverAssert(ptr noundef nonnull @.str.37, ptr noundef nonnull @.str.22, i32 noundef 410) #25
  tail call void @abort() #27
  unreachable

14:                                               ; preds = %7
  ret ptr %10
}